target datalayout = "e-m:e-p270:32:32-p271:32:32-p272:64:64-i64:64-i128:128-f80:128-n8:16:32:64-S128"
target triple = "x86_64-pc-linux-gnu"

%struct.lua_TValue = type { %union.Value, [1 x i32], i32 }
%union.Value = type { ptr }
%struct.Table = type { i8, i8, i8, i8, i8, i8, i8, i8, i32, %union.anon, ptr, ptr, ptr, ptr }
%union.anon = type { i32 }
%struct.lua_State = type { i8, i8, i8, i8, i8, i8, i8, ptr, ptr, ptr, ptr, ptr, ptr, ptr, ptr, i32, i32, i16, i16, i32, ptr, ptr, ptr, ptr, ptr }
%struct.CallInfo = type { ptr, ptr, ptr, ptr, i32, i32 }
%struct.global_State = type { %struct.stringtable, ptr, ptr, i8, i8, ptr, ptr, ptr, i64, i64, i32, i32, i32, [40 x ptr], [40 x ptr], ptr, ptr, ptr, [256 x i64], ptr, %struct.UpVal, [11 x ptr], [11 x ptr], [21 x ptr], %struct.lua_TValue, %struct.lua_TValue, i32, ptr, i64, [4 x i64], %struct.lua_Callbacks, %struct.lua_ExecutionCallbacks, [128 x ptr], [128 x ptr], [128 x ptr], %struct.GCStats }
%struct.stringtable = type { ptr, i32, i32 }
%struct.UpVal = type { i8, i8, i8, i8, ptr, %union.anon.3 }
%union.anon.3 = type { %struct.anon.4 }
%struct.anon.4 = type { ptr, ptr, ptr }
%struct.lua_Callbacks = type { ptr, ptr, ptr, ptr, ptr, ptr, ptr, ptr, ptr }
%struct.lua_ExecutionCallbacks = type { ptr, ptr, ptr, ptr, ptr, ptr, ptr }
%struct.GCStats = type { [32 x i32], i32, i32, i64, i64, i64, double, double, double }
%struct.Udata = type { i8, i8, i8, i8, i32, ptr, %union.anon.0 }
%union.anon.0 = type { %union.L_Umaxalign }
%union.L_Umaxalign = type { double }

@.str = private unnamed_addr constant [13 x i8] c"iterate over\00", align 1
@.str.1 = private unnamed_addr constant [5 x i8] c"call\00", align 1

; Function Attrs: mustprogress uwtable
define dso_local noundef ptr @_ZN4Luau7CodeGen15executeFORGPREPEP9lua_StatePKjP10lua_TValueS6_(ptr noundef %0, ptr noundef %1, ptr noundef %2, ptr noundef %3) #2 {
  %5 = alloca ptr, align 8
  %6 = alloca ptr, align 8
  %7 = alloca ptr, align 8
  %8 = alloca ptr, align 8
  %9 = alloca ptr, align 8
  %10 = alloca i32, align 4
  %11 = alloca ptr, align 8
  %12 = alloca ptr, align 8
  %13 = alloca ptr, align 8
  %14 = alloca ptr, align 8
  %15 = alloca ptr, align 8
  %16 = alloca ptr, align 8
  %17 = alloca ptr, align 8
  %18 = alloca ptr, align 8
  %19 = alloca ptr, align 8
  %20 = alloca ptr, align 8
  store ptr %0, ptr %5, align 8
  store ptr %1, ptr %6, align 8
  store ptr %2, ptr %7, align 8
  store ptr %3, ptr %8, align 8
  %21 = load ptr, ptr %5, align 8
  %22 = getelementptr inbounds %struct.lua_State, ptr %21, i32 0, i32 10
  %23 = load ptr, ptr %22, align 8
  %24 = getelementptr inbounds %struct.CallInfo, ptr %23, i32 0, i32 1
  %25 = load ptr, ptr %24, align 8
  %26 = getelementptr inbounds %struct.lua_TValue, ptr %25, i32 0, i32 0
  %27 = load ptr, ptr %26, align 8
  store ptr %27, ptr %9, align 8
  %28 = load ptr, ptr %6, align 8
  %29 = getelementptr inbounds i32, ptr %28, i32 1
  store ptr %29, ptr %6, align 8
  %30 = load i32, ptr %28, align 4
  store i32 %30, ptr %10, align 4
  %31 = load ptr, ptr %7, align 8
  %32 = load i32, ptr %10, align 4
  %33 = lshr i32 %32, 8
  %34 = and i32 %33, 255
  %35 = zext i32 %34 to i64
  %36 = getelementptr inbounds %struct.lua_TValue, ptr %31, i64 %35
  store ptr %36, ptr %11, align 8
  %37 = load ptr, ptr %11, align 8
  %38 = getelementptr inbounds %struct.lua_TValue, ptr %37, i32 0, i32 2
  %39 = load i32, ptr %38, align 4
  %40 = icmp eq i32 %39, 7
  br i1 %40, label %41, label %42

41:                                               ; preds = %4
  br label %205

42:                                               ; preds = %4
  %43 = load ptr, ptr %11, align 8
  %44 = getelementptr inbounds %struct.lua_TValue, ptr %43, i32 0, i32 2
  %45 = load i32, ptr %44, align 4
  %46 = icmp eq i32 %45, 6
  br i1 %46, label %47, label %53

47:                                               ; preds = %42
  %48 = load ptr, ptr %11, align 8
  %49 = getelementptr inbounds %struct.lua_TValue, ptr %48, i32 0, i32 0
  %50 = load ptr, ptr %49, align 8
  %51 = getelementptr inbounds %struct.Table, ptr %50, i32 0, i32 10
  %52 = load ptr, ptr %51, align 8
  br label %67

53:                                               ; preds = %42
  %54 = load ptr, ptr %11, align 8
  %55 = getelementptr inbounds %struct.lua_TValue, ptr %54, i32 0, i32 2
  %56 = load i32, ptr %55, align 4
  %57 = icmp eq i32 %56, 8
  br i1 %57, label %58, label %64

58:                                               ; preds = %53
  %59 = load ptr, ptr %11, align 8
  %60 = getelementptr inbounds %struct.lua_TValue, ptr %59, i32 0, i32 0
  %61 = load ptr, ptr %60, align 8
  %62 = getelementptr inbounds %struct.Udata, ptr %61, i32 0, i32 5
  %63 = load ptr, ptr %62, align 8
  br label %65

64:                                               ; preds = %53
  br label %65

65:                                               ; preds = %64, %58
  %66 = phi ptr [ %63, %58 ], [ null, %64 ]
  br label %67

67:                                               ; preds = %65, %47
  %68 = phi ptr [ %52, %47 ], [ %66, %65 ]
  store ptr %68, ptr %12, align 8
  %69 = load ptr, ptr %12, align 8
  %70 = icmp eq ptr %69, null
  br i1 %70, label %71, label %72

71:                                               ; preds = %67
  br label %91

72:                                               ; preds = %67
  %73 = load ptr, ptr %12, align 8
  %74 = getelementptr inbounds %struct.Table, ptr %73, i32 0, i32 3
  %75 = load i8, ptr %74, align 1
  %76 = zext i8 %75 to i32
  %77 = and i32 %76, 32
  %78 = icmp ne i32 %77, 0
  br i1 %78, label %79, label %80

79:                                               ; preds = %72
  br label %89

80:                                               ; preds = %72
  %81 = load ptr, ptr %12, align 8
  %82 = load ptr, ptr %5, align 8
  %83 = getelementptr inbounds %struct.lua_State, ptr %82, i32 0, i32 9
  %84 = load ptr, ptr %83, align 8
  %85 = getelementptr inbounds %struct.global_State, ptr %84, i32 0, i32 23
  %86 = getelementptr inbounds [21 x ptr], ptr %85, i64 0, i64 5
  %87 = load ptr, ptr %86, align 8
  %88 = call noundef ptr @_Z10luaT_gettmP5Table3TMSP7TString(ptr noundef %81, i32 noundef 5, ptr noundef %87)
  br label %89

89:                                               ; preds = %80, %79
  %90 = phi ptr [ null, %79 ], [ %88, %80 ]
  br label %91

91:                                               ; preds = %89, %71
  %92 = phi ptr [ null, %71 ], [ %90, %89 ]
  store ptr %92, ptr %13, align 8
  %93 = load ptr, ptr %13, align 8
  %94 = icmp ne ptr %93, null
  br i1 %94, label %95, label %145

95:                                               ; preds = %91
  %96 = load ptr, ptr %11, align 8
  store ptr %96, ptr %14, align 8
  %97 = load ptr, ptr %11, align 8
  %98 = getelementptr inbounds %struct.lua_TValue, ptr %97, i64 1
  store ptr %98, ptr %15, align 8
  %99 = load ptr, ptr %14, align 8
  %100 = load ptr, ptr %15, align 8
  call void @llvm.memcpy.p0.p0.i64(ptr align 8 %100, ptr align 8 %99, i64 16, i1 false)
  %101 = load ptr, ptr %13, align 8
  store ptr %101, ptr %16, align 8
  %102 = load ptr, ptr %11, align 8
  store ptr %102, ptr %17, align 8
  %103 = load ptr, ptr %16, align 8
  %104 = load ptr, ptr %17, align 8
  call void @llvm.memcpy.p0.p0.i64(ptr align 8 %104, ptr align 8 %103, i64 16, i1 false)
  %105 = load ptr, ptr %11, align 8
  %106 = getelementptr inbounds %struct.lua_TValue, ptr %105, i64 2
  %107 = load ptr, ptr %5, align 8
  %108 = getelementptr inbounds %struct.lua_State, ptr %107, i32 0, i32 7
  store ptr %106, ptr %108, align 8
  %109 = load ptr, ptr %6, align 8
  %110 = load ptr, ptr %5, align 8
  %111 = getelementptr inbounds %struct.lua_State, ptr %110, i32 0, i32 10
  %112 = load ptr, ptr %111, align 8
  %113 = getelementptr inbounds %struct.CallInfo, ptr %112, i32 0, i32 3
  store ptr %109, ptr %113, align 8
  %114 = load ptr, ptr %5, align 8
  %115 = load ptr, ptr %11, align 8
  call void @_Z9luaD_callP9lua_StateP10lua_TValuei(ptr noundef %114, ptr noundef %115, i32 noundef 3)
  %116 = load ptr, ptr %5, align 8
  %117 = getelementptr inbounds %struct.lua_State, ptr %116, i32 0, i32 8
  %118 = load ptr, ptr %117, align 8
  store ptr %118, ptr %7, align 8
  %119 = load ptr, ptr %5, align 8
  %120 = getelementptr inbounds %struct.lua_State, ptr %119, i32 0, i32 10
  %121 = load ptr, ptr %120, align 8
  %122 = getelementptr inbounds %struct.CallInfo, ptr %121, i32 0, i32 2
  %123 = load ptr, ptr %122, align 8
  %124 = load ptr, ptr %5, align 8
  %125 = getelementptr inbounds %struct.lua_State, ptr %124, i32 0, i32 7
  store ptr %123, ptr %125, align 8
  %126 = load ptr, ptr %7, align 8
  %127 = load i32, ptr %10, align 4
  %128 = lshr i32 %127, 8
  %129 = and i32 %128, 255
  %130 = zext i32 %129 to i64
  %131 = getelementptr inbounds %struct.lua_TValue, ptr %126, i64 %130
  store ptr %131, ptr %11, align 8
  %132 = load ptr, ptr %11, align 8
  %133 = getelementptr inbounds %struct.lua_TValue, ptr %132, i32 0, i32 2
  %134 = load i32, ptr %133, align 4
  %135 = icmp eq i32 %134, 0
  br i1 %135, label %136, label %144

136:                                              ; preds = %95
  %137 = load ptr, ptr %6, align 8
  %138 = load ptr, ptr %5, align 8
  %139 = getelementptr inbounds %struct.lua_State, ptr %138, i32 0, i32 10
  %140 = load ptr, ptr %139, align 8
  %141 = getelementptr inbounds %struct.CallInfo, ptr %140, i32 0, i32 3
  store ptr %137, ptr %141, align 8
  %142 = load ptr, ptr %5, align 8
  %143 = load ptr, ptr %11, align 8
  call void @_Z15luaG_typeerrorLP9lua_StatePK10lua_TValuePKc(ptr noundef %142, ptr noundef %143, ptr noundef @.str.1) #5
  unreachable

144:                                              ; preds = %95
  br label %204

145:                                              ; preds = %91
  %146 = load ptr, ptr %12, align 8
  %147 = icmp eq ptr %146, null
  br i1 %147, label %148, label %149

148:                                              ; preds = %145
  br label %168

149:                                              ; preds = %145
  %150 = load ptr, ptr %12, align 8
  %151 = getelementptr inbounds %struct.Table, ptr %150, i32 0, i32 3
  %152 = load i8, ptr %151, align 1
  %153 = zext i8 %152 to i32
  %154 = and i32 %153, 16
  %155 = icmp ne i32 %154, 0
  br i1 %155, label %156, label %157

156:                                              ; preds = %149
  br label %166

157:                                              ; preds = %149
  %158 = load ptr, ptr %12, align 8
  %159 = load ptr, ptr %5, align 8
  %160 = getelementptr inbounds %struct.lua_State, ptr %159, i32 0, i32 9
  %161 = load ptr, ptr %160, align 8
  %162 = getelementptr inbounds %struct.global_State, ptr %161, i32 0, i32 23
  %163 = getelementptr inbounds [21 x ptr], ptr %162, i64 0, i64 4
  %164 = load ptr, ptr %163, align 8
  %165 = call noundef ptr @_Z10luaT_gettmP5Table3TMSP7TString(ptr noundef %158, i32 noundef 4, ptr noundef %164)
  br label %166

166:                                              ; preds = %157, %156
  %167 = phi ptr [ null, %156 ], [ %165, %157 ]
  br label %168

168:                                              ; preds = %166, %148
  %169 = phi ptr [ null, %148 ], [ %167, %166 ]
  %170 = icmp ne ptr %169, null
  br i1 %170, label %171, label %172

171:                                              ; preds = %168
  br label %203

172:                                              ; preds = %168
  %173 = load ptr, ptr %11, align 8
  %174 = getelementptr inbounds %struct.lua_TValue, ptr %173, i32 0, i32 2
  %175 = load i32, ptr %174, align 4
  %176 = icmp eq i32 %175, 6
  br i1 %176, label %177, label %194

177:                                              ; preds = %172
  %178 = load ptr, ptr %11, align 8
  store ptr %178, ptr %18, align 8
  %179 = load ptr, ptr %11, align 8
  %180 = getelementptr inbounds %struct.lua_TValue, ptr %179, i64 1
  store ptr %180, ptr %19, align 8
  %181 = load ptr, ptr %18, align 8
  %182 = load ptr, ptr %19, align 8
  call void @llvm.memcpy.p0.p0.i64(ptr align 8 %182, ptr align 8 %181, i64 16, i1 false)
  %183 = load ptr, ptr %11, align 8
  %184 = getelementptr inbounds %struct.lua_TValue, ptr %183, i64 2
  store ptr %184, ptr %20, align 8
  %185 = load ptr, ptr %20, align 8
  %186 = getelementptr inbounds %struct.lua_TValue, ptr %185, i32 0, i32 0
  store ptr null, ptr %186, align 8
  %187 = load ptr, ptr %20, align 8
  %188 = getelementptr inbounds %struct.lua_TValue, ptr %187, i32 0, i32 1
  %189 = getelementptr inbounds [1 x i32], ptr %188, i64 0, i64 0
  store i32 128, ptr %189, align 8
  %190 = load ptr, ptr %20, align 8
  %191 = getelementptr inbounds %struct.lua_TValue, ptr %190, i32 0, i32 2
  store i32 2, ptr %191, align 4
  %192 = load ptr, ptr %11, align 8
  %193 = getelementptr inbounds %struct.lua_TValue, ptr %192, i32 0, i32 2
  store i32 0, ptr %193, align 4
  br label %202

194:                                              ; preds = %172
  %195 = load ptr, ptr %6, align 8
  %196 = load ptr, ptr %5, align 8
  %197 = getelementptr inbounds %struct.lua_State, ptr %196, i32 0, i32 10
  %198 = load ptr, ptr %197, align 8
  %199 = getelementptr inbounds %struct.CallInfo, ptr %198, i32 0, i32 3
  store ptr %195, ptr %199, align 8
  %200 = load ptr, ptr %5, align 8
  %201 = load ptr, ptr %11, align 8
  call void @_Z15luaG_typeerrorLP9lua_StatePK10lua_TValuePKc(ptr noundef %200, ptr noundef %201, ptr noundef @.str) #5
  unreachable

202:                                              ; preds = %177
  br label %203

203:                                              ; preds = %202, %171
  br label %204

204:                                              ; preds = %203, %144
  br label %205

205:                                              ; preds = %204, %41
  %206 = load i32, ptr %10, align 4
  %207 = ashr i32 %206, 16
  %208 = load ptr, ptr %6, align 8
  %209 = sext i32 %207 to i64
  %210 = getelementptr inbounds i32, ptr %208, i64 %209
  store ptr %210, ptr %6, align 8
  %211 = load ptr, ptr %6, align 8
  ret ptr %211
}