; Function Attrs: mustprogress uwtable
define dso_local noundef nonnull ptr @_ZN4Luau7CodeGen15executeFORGPREPEP9lua_StatePKjP10lua_TValueS6_(ptr noundef %0, ptr noundef %1, ptr noundef %2, ptr nocapture noundef readnone %3) local_unnamed_addr #2 {
  %5 = getelementptr inbounds i8, ptr %0, i64 32
  %6 = getelementptr inbounds i8, ptr %1, i64 4
  %7 = load i32, ptr %1, align 4
  %8 = lshr i32 %7, 8
  %9 = and i32 %8, 255
  %10 = zext nneg i32 %9 to i64
  %11 = getelementptr inbounds %struct.lua_TValue, ptr %2, i64 %10
  %12 = getelementptr inbounds i8, ptr %11, i64 12
  %13 = load i32, ptr %12, align 4
  switch i32 %13, label %.critedge.thread [
    i32 7, label %64
    i32 6, label %15
    i32 8, label %14
  ]

14:                                               ; preds = %4
  br label %15

15:                                               ; preds = %4, %14
  %.sink71 = phi i64 [ 8, %14 ], [ 16, %4 ]
  %16 = load ptr, ptr %11, align 8
  %17 = getelementptr inbounds i8, ptr %16, i64 %.sink71
  %18 = load ptr, ptr %17, align 8
  %19 = icmp eq ptr %18, null
  br i1 %19, label %.critedge, label %20

20:                                               ; preds = %15
  %21 = getelementptr inbounds i8, ptr %18, i64 3
  %22 = load i8, ptr %21, align 1
  %23 = and i8 %22, 32
  %.not = icmp eq i8 %23, 0
  br i1 %.not, label %24, label %.thread66

24:                                               ; preds = %20
  %25 = getelementptr inbounds i8, ptr %0, i64 24
  %26 = load ptr, ptr %25, align 8
  %27 = getelementptr inbounds i8, ptr %26, i64 3072
  %28 = load ptr, ptr %27, align 8
  %29 = tail call noundef ptr @_Z10luaT_gettmP5Table3TMSP7TString(ptr noundef nonnull %18, i32 noundef 5, ptr noundef %28)
  %.not60 = icmp eq ptr %29, null
  br i1 %.not60, label %..thread66_crit_edge, label %30

..thread66_crit_edge:                             ; preds = %24
  %.pre = load i8, ptr %21, align 1
  br label %.thread66

30:                                               ; preds = %24
  %31 = getelementptr inbounds i8, ptr %11, i64 16
  tail call void @llvm.memcpy.p0.p0.i64(ptr noundef nonnull align 8 dereferenceable(16) %31, ptr noundef nonnull align 8 dereferenceable(16) %11, i64 16, i1 false)
  tail call void @llvm.memcpy.p0.p0.i64(ptr noundef nonnull align 8 dereferenceable(16) %11, ptr noundef nonnull align 8 dereferenceable(16) %29, i64 16, i1 false)
  %32 = getelementptr inbounds i8, ptr %11, i64 32
  %33 = getelementptr inbounds i8, ptr %0, i64 8
  store ptr %32, ptr %33, align 8
  %34 = load ptr, ptr %5, align 8
  %35 = getelementptr inbounds i8, ptr %34, i64 24
  store ptr %6, ptr %35, align 8
  tail call void @_Z9luaD_callP9lua_StateP10lua_TValuei(ptr noundef nonnull %0, ptr noundef nonnull %11, i32 noundef 3)
  %36 = getelementptr inbounds i8, ptr %0, i64 16
  %37 = load ptr, ptr %36, align 8
  %38 = load ptr, ptr %5, align 8
  %39 = getelementptr inbounds i8, ptr %38, i64 16
  %40 = load ptr, ptr %39, align 8
  store ptr %40, ptr %33, align 8
  %41 = getelementptr inbounds %struct.lua_TValue, ptr %37, i64 %10
  %42 = getelementptr inbounds i8, ptr %41, i64 12
  %43 = load i32, ptr %42, align 4
  %44 = icmp eq i32 %43, 0
  br i1 %44, label %45, label %64

45:                                               ; preds = %30
  %46 = getelementptr inbounds i8, ptr %38, i64 24
  store ptr %6, ptr %46, align 8
  tail call void @_Z15luaG_typeerrorLP9lua_StatePK10lua_TValuePKc(ptr noundef nonnull %0, ptr noundef nonnull %41, ptr noundef nonnull @.str.1) #7
  unreachable

.thread66:                                        ; preds = %..thread66_crit_edge, %20
  %47 = phi i8 [ %.pre, %..thread66_crit_edge ], [ %22, %20 ]
  %48 = and i8 %47, 16
  %.not61 = icmp eq i8 %48, 0
  br i1 %.not61, label %49, label %.critedge

49:                                               ; preds = %.thread66
  %50 = getelementptr inbounds i8, ptr %0, i64 24
  %51 = load ptr, ptr %50, align 8
  %52 = getelementptr inbounds i8, ptr %51, i64 3064
  %53 = load ptr, ptr %52, align 8
  %54 = tail call noundef ptr @_Z10luaT_gettmP5Table3TMSP7TString(ptr noundef nonnull %18, i32 noundef 4, ptr noundef %53)
  %55 = icmp eq ptr %54, null
  br i1 %55, label %.critedge, label %64

.critedge:                                        ; preds = %15, %.thread66, %49
  %.pr = load i32, ptr %12, align 4
  %56 = icmp eq i32 %.pr, 6
  br i1 %56, label %57, label %.critedge.thread

57:                                               ; preds = %.critedge
  %58 = getelementptr inbounds i8, ptr %11, i64 16
  tail call void @llvm.memcpy.p0.p0.i64(ptr noundef nonnull align 8 dereferenceable(16) %58, ptr noundef nonnull align 8 dereferenceable(16) %11, i64 16, i1 false)
  %59 = getelementptr inbounds i8, ptr %11, i64 32
  store ptr null, ptr %59, align 8
  %60 = getelementptr inbounds i8, ptr %11, i64 40
  store i32 128, ptr %60, align 8
  %61 = getelementptr inbounds i8, ptr %11, i64 44
  store i32 2, ptr %61, align 4
  store i32 0, ptr %12, align 4
  br label %64

.critedge.thread:                                 ; preds = %4, %.critedge
  %62 = load ptr, ptr %5, align 8
  %63 = getelementptr inbounds i8, ptr %62, i64 24
  store ptr %6, ptr %63, align 8
  tail call void @_Z15luaG_typeerrorLP9lua_StatePK10lua_TValuePKc(ptr noundef %0, ptr noundef nonnull %11, ptr noundef nonnull @.str) #7
  unreachable

64:                                               ; preds = %4, %30, %49, %57
  %65 = ashr i32 %7, 16
  %66 = sext i32 %65 to i64
  %67 = getelementptr inbounds i32, ptr %6, i64 %66
  ret ptr %67
}